target datalayout = "e-m:e-p270:32:32-p271:32:32-p272:64:64-i64:64-i128:128-f80:128-n8:16:32:64-S128"
target triple = "x86_64-pc-linux-gnu"

%struct.archive_write = type { %struct.archive, i32, i64, i64, ptr, i64, ptr, ptr, ptr, ptr, ptr, i32, i32, ptr, ptr, ptr, ptr, ptr, ptr, ptr, ptr, ptr, ptr, ptr, ptr, ptr, ptr }
%struct.archive = type { i32, i32, ptr, i32, ptr, i32, i32, ptr, %struct.archive_string, ptr, i32, i32, ptr, ptr, i64, i64, i64, i8, i64 }
%struct.archive_string = type { ptr, i64, i64 }
%struct.cpio = type { i64, i64, ptr, i64, i64, ptr, ptr, i32 }

@.str.8 = private unnamed_addr constant [18 x i8] c"Filetype required\00", align 1
@.str.9 = private unnamed_addr constant [35 x i8] c"Can't allocate memory for Pathname\00", align 1
@.str.10 = private unnamed_addr constant [18 x i8] c"Pathname required\00", align 1
@.str.11 = private unnamed_addr constant [14 x i8] c"Size required\00", align 1

; Function Attrs: nounwind uwtable
define internal ptr @get_sconv(ptr noundef %0) #0 {
  %2 = alloca ptr, align 8
  %3 = alloca ptr, align 8
  %4 = alloca ptr, align 8
  store ptr %0, ptr %2, align 8
  %5 = load ptr, ptr %2, align 8
  %6 = getelementptr inbounds %struct.archive_write, ptr %5, i32 0, i32 15
  %7 = load ptr, ptr %6, align 8
  store ptr %7, ptr %3, align 8
  %8 = load ptr, ptr %3, align 8
  %9 = getelementptr inbounds %struct.cpio, ptr %8, i32 0, i32 5
  %10 = load ptr, ptr %9, align 8
  store ptr %10, ptr %4, align 8
  %11 = load ptr, ptr %4, align 8
  %12 = icmp eq ptr %11, null
  br i1 %12, label %13, label %30

13:                                               ; preds = %1
  %14 = load ptr, ptr %3, align 8
  %15 = getelementptr inbounds %struct.cpio, ptr %14, i32 0, i32 7
  %16 = load i32, ptr %15, align 8
  %17 = icmp ne i32 %16, 0
  br i1 %17, label %26, label %18

18:                                               ; preds = %13
  %19 = load ptr, ptr %2, align 8
  %20 = getelementptr inbounds %struct.archive_write, ptr %19, i32 0, i32 0
  %21 = call ptr @archive_string_default_conversion_for_write(ptr noundef %20)
  %22 = load ptr, ptr %3, align 8
  %23 = getelementptr inbounds %struct.cpio, ptr %22, i32 0, i32 6
  store ptr %21, ptr %23, align 8
  %24 = load ptr, ptr %3, align 8
  %25 = getelementptr inbounds %struct.cpio, ptr %24, i32 0, i32 7
  store i32 1, ptr %25, align 8
  br label %26

26:                                               ; preds = %18, %13
  %27 = load ptr, ptr %3, align 8
  %28 = getelementptr inbounds %struct.cpio, ptr %27, i32 0, i32 6
  %29 = load ptr, ptr %28, align 8
  store ptr %29, ptr %4, align 8
  br label %30

30:                                               ; preds = %26, %1
  %31 = load ptr, ptr %4, align 8
  ret ptr %31
}

; Function Attrs: nounwind uwtable
define internal i32 @archive_write_binary_header(ptr noundef %0, ptr noundef %1) #0 {
  %3 = alloca i32, align 4
  %4 = alloca ptr, align 8
  %5 = alloca ptr, align 8
  %6 = alloca ptr, align 8
  %7 = alloca i64, align 8
  store ptr %0, ptr %4, align 8
  store ptr %1, ptr %5, align 8
  %8 = load ptr, ptr %5, align 8
  %9 = call i32 @archive_entry_filetype(ptr noundef %8)
  %10 = icmp eq i32 %9, 0
  br i1 %10, label %11, label %18

11:                                               ; preds = %2
  %12 = load ptr, ptr %5, align 8
  %13 = call ptr @archive_entry_hardlink(ptr noundef %12)
  %14 = icmp eq ptr %13, null
  br i1 %14, label %15, label %18

15:                                               ; preds = %11
  %16 = load ptr, ptr %4, align 8
  %17 = getelementptr inbounds %struct.archive_write, ptr %16, i32 0, i32 0
  call void (ptr, i32, ptr, ...) @archive_set_error(ptr noundef %17, i32 noundef -1, ptr noundef @.str.8)
  store i32 -25, ptr %3, align 4
  br label %61

18:                                               ; preds = %11, %2
  %19 = load ptr, ptr %5, align 8
  %20 = load ptr, ptr %4, align 8
  %21 = call ptr @get_sconv(ptr noundef %20)
  %22 = call i32 @_archive_entry_pathname_l(ptr noundef %19, ptr noundef %6, ptr noundef %7, ptr noundef %21)
  %23 = icmp ne i32 %22, 0
  br i1 %23, label %24, label %31

24:                                               ; preds = %18
  %25 = call ptr @__errno_location() #9
  %26 = load i32, ptr %25, align 4
  %27 = icmp eq i32 %26, 12
  br i1 %27, label %28, label %31

28:                                               ; preds = %24
  %29 = load ptr, ptr %4, align 8
  %30 = getelementptr inbounds %struct.archive_write, ptr %29, i32 0, i32 0
  call void (ptr, i32, ptr, ...) @archive_set_error(ptr noundef %30, i32 noundef 12, ptr noundef @.str.9)
  store i32 -30, ptr %3, align 4
  br label %61

31:                                               ; preds = %24, %18
  %32 = load i64, ptr %7, align 8
  %33 = icmp eq i64 %32, 0
  br i1 %33, label %43, label %34

34:                                               ; preds = %31
  %35 = load ptr, ptr %6, align 8
  %36 = icmp eq ptr %35, null
  br i1 %36, label %43, label %37

37:                                               ; preds = %34
  %38 = load ptr, ptr %6, align 8
  %39 = getelementptr inbounds i8, ptr %38, i64 0
  %40 = load i8, ptr %39, align 1
  %41 = sext i8 %40 to i32
  %42 = icmp eq i32 %41, 0
  br i1 %42, label %43, label %46

43:                                               ; preds = %37, %34, %31
  %44 = load ptr, ptr %4, align 8
  %45 = getelementptr inbounds %struct.archive_write, ptr %44, i32 0, i32 0
  call void (ptr, i32, ptr, ...) @archive_set_error(ptr noundef %45, i32 noundef -1, ptr noundef @.str.10)
  store i32 -25, ptr %3, align 4
  br label %61

46:                                               ; preds = %37
  %47 = load ptr, ptr %5, align 8
  %48 = call i32 @archive_entry_size_is_set(ptr noundef %47)
  %49 = icmp ne i32 %48, 0
  br i1 %49, label %50, label %54

50:                                               ; preds = %46
  %51 = load ptr, ptr %5, align 8
  %52 = call i64 @archive_entry_size(ptr noundef %51)
  %53 = icmp slt i64 %52, 0
  br i1 %53, label %54, label %57

54:                                               ; preds = %50, %46
  %55 = load ptr, ptr %4, align 8
  %56 = getelementptr inbounds %struct.archive_write, ptr %55, i32 0, i32 0
  call void (ptr, i32, ptr, ...) @archive_set_error(ptr noundef %56, i32 noundef -1, ptr noundef @.str.11)
  store i32 -25, ptr %3, align 4
  br label %61

57:                                               ; preds = %50
  %58 = load ptr, ptr %4, align 8
  %59 = load ptr, ptr %5, align 8
  %60 = call i32 @write_header(ptr noundef %58, ptr noundef %59)
  store i32 %60, ptr %3, align 4
  br label %61

61:                                               ; preds = %57, %54, %43, %28, %15
  %62 = load i32, ptr %3, align 4
  ret i32 %62
}