; Function Attrs: nounwind uwtable
define internal range(i32 -30, 1) i32 @archive_write_binary_header(ptr noundef %0, ptr noundef %1) #0 {
  %3 = alloca ptr, align 8
  %4 = alloca i64, align 8
  %5 = tail call i32 @archive_entry_filetype(ptr noundef %1) #9
  %6 = icmp eq i32 %5, 0
  br i1 %6, label %7, label %11

7:                                                ; preds = %2
  %8 = tail call ptr @archive_entry_hardlink(ptr noundef %1) #9
  %9 = icmp eq ptr %8, null
  br i1 %9, label %10, label %11

10:                                               ; preds = %7
  tail call void (ptr, i32, ptr, ...) @archive_set_error(ptr noundef %0, i32 noundef -1, ptr noundef nonnull @.str.8) #9
  br label %46

11:                                               ; preds = %7, %2
  %12 = getelementptr inbounds nuw i8, ptr %0, i64 248
  %13 = load ptr, ptr %12, align 8
  %14 = getelementptr inbounds nuw i8, ptr %13, i64 40
  %15 = load ptr, ptr %14, align 8
  %16 = icmp eq ptr %15, null
  br i1 %16, label %17, label %get_sconv.exit

17:                                               ; preds = %11
  %18 = getelementptr inbounds nuw i8, ptr %13, i64 56
  %19 = load i32, ptr %18, align 8
  %.not.i = icmp eq i32 %19, 0
  br i1 %.not.i, label %20, label %._crit_edge.i

._crit_edge.i:                                    ; preds = %17
  %.phi.trans.insert.i = getelementptr inbounds nuw i8, ptr %13, i64 48
  %.pre.i = load ptr, ptr %.phi.trans.insert.i, align 8
  br label %get_sconv.exit

20:                                               ; preds = %17
  %21 = tail call ptr @archive_string_default_conversion_for_write(ptr noundef nonnull %0) #9
  %22 = getelementptr inbounds nuw i8, ptr %13, i64 48
  store ptr %21, ptr %22, align 8
  store i32 1, ptr %18, align 8
  br label %get_sconv.exit

get_sconv.exit:                                   ; preds = %11, %._crit_edge.i, %20
  %.0.i = phi ptr [ %15, %11 ], [ %.pre.i, %._crit_edge.i ], [ %21, %20 ]
  %23 = call i32 @_archive_entry_pathname_l(ptr noundef %1, ptr noundef nonnull %3, ptr noundef nonnull %4, ptr noundef %.0.i) #9
  %.not = icmp eq i32 %23, 0
  br i1 %.not, label %29, label %24

24:                                               ; preds = %get_sconv.exit
  %25 = tail call ptr @__errno_location() #12
  %26 = load i32, ptr %25, align 4
  %27 = icmp eq i32 %26, 12
  br i1 %27, label %28, label %29

28:                                               ; preds = %24
  call void (ptr, i32, ptr, ...) @archive_set_error(ptr noundef nonnull %0, i32 noundef 12, ptr noundef nonnull @.str.9) #9
  br label %46

29:                                               ; preds = %24, %get_sconv.exit
  %30 = load i64, ptr %4, align 8
  %31 = icmp eq i64 %30, 0
  %32 = load ptr, ptr %3, align 8
  %33 = icmp eq ptr %32, null
  %or.cond = select i1 %31, i1 true, i1 %33
  br i1 %or.cond, label %37, label %34

34:                                               ; preds = %29
  %35 = load i8, ptr %32, align 1
  %36 = icmp eq i8 %35, 0
  br i1 %36, label %37, label %38

37:                                               ; preds = %34, %29
  call void (ptr, i32, ptr, ...) @archive_set_error(ptr noundef nonnull %0, i32 noundef -1, ptr noundef nonnull @.str.10) #9
  br label %46

38:                                               ; preds = %34
  %39 = call i32 @archive_entry_size_is_set(ptr noundef %1) #9
  %.not14 = icmp eq i32 %39, 0
  br i1 %.not14, label %43, label %40

40:                                               ; preds = %38
  %41 = call i64 @archive_entry_size(ptr noundef %1) #9
  %42 = icmp slt i64 %41, 0
  br i1 %42, label %43, label %44

43:                                               ; preds = %40, %38
  call void (ptr, i32, ptr, ...) @archive_set_error(ptr noundef nonnull %0, i32 noundef -1, ptr noundef nonnull @.str.11) #9
  br label %46

44:                                               ; preds = %40
  %45 = call fastcc i32 @write_header(ptr noundef nonnull %0, ptr noundef %1)
  br label %46

46:                                               ; preds = %44, %43, %37, %28, %10
  %.0 = phi i32 [ -25, %10 ], [ -30, %28 ], [ -25, %37 ], [ -25, %43 ], [ %45, %44 ]
  ret i32 %.0
}